target datalayout = "e-m:e-p270:32:32-p271:32:32-p272:64:64-i64:64-i128:128-f80:128-n8:16:32:64-S128"
target triple = "x86_64-pc-linux-gnu"

%struct.rb_iseq_struct = type { i64, i64, ptr, %union.anon.15 }
%union.anon.15 = type { %struct.anon.16 }
%struct.anon.16 = type { i64, i32 }
%struct.rb_iseq_constant_body = type { i32, i32, ptr, %struct.anon.18, %struct.rb_iseq_location_struct, %struct.iseq_insn_info, ptr, ptr, ptr, ptr, ptr, ptr, %struct.anon.19, i32, i32, i32, i32, i32, i32, i32, i32, i8, %union.anon.20, ptr, ptr, ptr, i64, ptr, i64, ptr, i64 }
%struct.anon.18 = type { %struct.anon, i32, i32, i32, i32, i32, i32, i32, ptr, ptr }
%struct.anon = type { i16, [2 x i8] }
%struct.rb_iseq_location_struct = type { i64, i64, i64, i32, i32, %struct.rb_code_location_struct }
%struct.rb_code_location_struct = type { %struct.rb_code_position_struct, %struct.rb_code_position_struct }
%struct.rb_code_position_struct = type { i32, i32 }
%struct.iseq_insn_info = type { ptr, ptr, i32, ptr }
%struct.anon.19 = type { i64, i64, i64, i64, ptr }
%union.anon.20 = type { ptr }
%struct.rb_callinfo_kwarg = type { i32, i32, [0 x i64] }

@.str = private unnamed_addr constant [13 x i8] c"../compile.c\00", align 1

; Function Attrs: inlinehint nounwind sspstrong willreturn memory(none) uwtable
define internal zeroext i1 @RB_IMMEDIATE_P(i64 noundef %0) #5 {
  %2 = alloca i64, align 8
  store i64 %0, ptr %2, align 8, !tbaa !7
  %3 = load i64, ptr %2, align 8, !tbaa !7
  %4 = and i64 %3, 7
  %5 = icmp ne i64 %4, 0
  ret i1 %5
}

; Function Attrs: inlinehint nounwind sspstrong willreturn memory(none) uwtable
define internal zeroext i1 @RB_SPECIAL_CONST_P(i64 noundef %0) #5 {
  %2 = alloca i64, align 8
  store i64 %0, ptr %2, align 8, !tbaa !7
  %3 = load i64, ptr %2, align 8, !tbaa !7
  %4 = icmp eq i64 %3, 0
  br i1 %4, label %8, label %5

5:                                                ; preds = %1
  %6 = load i64, ptr %2, align 8, !tbaa !7
  %7 = call zeroext i1 @RB_IMMEDIATE_P(i64 noundef %6) #32
  br label %8

8:                                                ; preds = %5, %1
  %9 = phi i1 [ true, %1 ], [ %7, %5 ]
  ret i1 %9
}

; Function Attrs: inlinehint nounwind sspstrong uwtable
define internal i64 @rb_obj_written(i64 noundef %0, i64 noundef %1, i64 noundef %2, ptr noundef %3, i32 noundef %4) #3 {
  %6 = alloca i64, align 8
  %7 = alloca i64, align 8
  %8 = alloca i64, align 8
  %9 = alloca ptr, align 8
  %10 = alloca i32, align 4
  store i64 %0, ptr %6, align 8, !tbaa !7
  store i64 %1, ptr %7, align 8, !tbaa !7
  store i64 %2, ptr %8, align 8, !tbaa !7
  store ptr %3, ptr %9, align 8, !tbaa !91
  store i32 %4, ptr %10, align 4, !tbaa !41
  %11 = load i64, ptr %8, align 8, !tbaa !7
  %12 = call zeroext i1 @RB_SPECIAL_CONST_P(i64 noundef %11) #32
  br i1 %12, label %16, label %13

13:                                               ; preds = %5
  %14 = load i64, ptr %6, align 8, !tbaa !7
  %15 = load i64, ptr %8, align 8, !tbaa !7
  call void @rb_gc_writebarrier(i64 noundef %14, i64 noundef %15)
  br label %16

16:                                               ; preds = %13, %5
  %17 = load i64, ptr %6, align 8, !tbaa !7
  ret i64 %17
}

; Function Attrs: inlinehint nounwind sspstrong uwtable
define internal ptr @vm_ci_new_(i64 noundef %0, i32 noundef %1, i32 noundef %2, ptr noundef %3, ptr noundef %4, i32 noundef %5) #3 {
  %7 = alloca ptr, align 8
  %8 = alloca i64, align 8
  %9 = alloca i32, align 4
  %10 = alloca i32, align 4
  %11 = alloca ptr, align 8
  %12 = alloca ptr, align 8
  %13 = alloca i32, align 4
  %14 = alloca i8, align 1
  %15 = alloca ptr, align 8
  store i64 %0, ptr %8, align 8, !tbaa !7
  store i32 %1, ptr %9, align 4, !tbaa !41
  store i32 %2, ptr %10, align 4, !tbaa !41
  store ptr %3, ptr %11, align 8, !tbaa !799
  store ptr %4, ptr %12, align 8, !tbaa !91
  store i32 %5, ptr %13, align 4, !tbaa !41
  %16 = load i64, ptr %8, align 8, !tbaa !7
  %17 = and i64 %16, -4294967296
  %18 = icmp ne i64 %17, 0
  br i1 %18, label %19, label %20

19:                                               ; preds = %6
  br i1 false, label %37, label %50

20:                                               ; preds = %6
  %21 = load i32, ptr %9, align 4, !tbaa !41
  %22 = zext i32 %21 to i64
  %23 = and i64 %22, -65536
  %24 = icmp ne i64 %23, 0
  br i1 %24, label %25, label %26

25:                                               ; preds = %20
  br i1 false, label %37, label %50

26:                                               ; preds = %20
  %27 = load i32, ptr %10, align 4, !tbaa !41
  %28 = zext i32 %27 to i64
  %29 = and i64 %28, -32768
  %30 = icmp ne i64 %29, 0
  br i1 %30, label %31, label %32

31:                                               ; preds = %26
  br i1 false, label %37, label %50

32:                                               ; preds = %26
  %33 = load ptr, ptr %11, align 8, !tbaa !799
  %34 = icmp ne ptr %33, null
  br i1 %34, label %35, label %36

35:                                               ; preds = %32
  br i1 false, label %37, label %50

36:                                               ; preds = %32
  br i1 true, label %37, label %50

37:                                               ; preds = %36, %35, %31, %25, %19
  %38 = load i64, ptr %8, align 8, !tbaa !7
  %39 = shl i64 %38, 32
  %40 = load i32, ptr %9, align 4, !tbaa !41
  %41 = zext i32 %40 to i64
  %42 = shl i64 %41, 16
  %43 = or i64 %39, %42
  %44 = load i32, ptr %10, align 4, !tbaa !41
  %45 = zext i32 %44 to i64
  %46 = shl i64 %45, 1
  %47 = or i64 %43, %46
  %48 = or i64 %47, 1
  %49 = inttoptr i64 %48 to ptr
  store ptr %49, ptr %7, align 8
  br label %62

50:                                               ; preds = %36, %35, %31, %25, %19
  call void @llvm.lifetime.start.p0(i64 1, ptr %14) #31
  store i8 0, ptr %14, align 1, !tbaa !109
  call void @llvm.lifetime.start.p0(i64 8, ptr %15) #31
  %51 = load i64, ptr %8, align 8, !tbaa !7
  %52 = load i32, ptr %9, align 4, !tbaa !41
  %53 = load i32, ptr %10, align 4, !tbaa !41
  %54 = load ptr, ptr %11, align 8, !tbaa !799
  %55 = call ptr @rb_vm_ci_lookup(i64 noundef %51, i32 noundef %52, i32 noundef %53, ptr noundef %54)
  store ptr %55, ptr %15, align 8, !tbaa !791
  %56 = load ptr, ptr %11, align 8, !tbaa !799
  %57 = icmp ne ptr %56, null
  br i1 %57, label %58, label %59

58:                                               ; preds = %50
  br label %60

59:                                               ; preds = %50
  br label %60

60:                                               ; preds = %59, %58
  %61 = load ptr, ptr %15, align 8, !tbaa !791
  store ptr %61, ptr %7, align 8
  call void @llvm.lifetime.end.p0(i64 8, ptr %15) #31
  call void @llvm.lifetime.end.p0(i64 1, ptr %14) #31
  br label %62

62:                                               ; preds = %60, %37
  %63 = load ptr, ptr %7, align 8
  ret ptr %63
}

; Function Attrs: nounwind sspstrong uwtable
define internal ptr @new_callinfo(ptr noundef %0, i64 noundef %1, i32 noundef %2, i32 noundef %3, ptr noundef %4, i32 noundef %5) #0 {
  %7 = alloca ptr, align 8
  %8 = alloca i64, align 8
  %9 = alloca i32, align 4
  %10 = alloca i32, align 4
  %11 = alloca ptr, align 8
  %12 = alloca i32, align 4
  %13 = alloca ptr, align 8
  store ptr %0, ptr %7, align 8, !tbaa !11
  store i64 %1, ptr %8, align 8, !tbaa !7
  store i32 %2, ptr %9, align 4, !tbaa !41
  store i32 %3, ptr %10, align 4, !tbaa !41
  store ptr %4, ptr %11, align 8, !tbaa !799
  store i32 %5, ptr %12, align 4, !tbaa !41
  %14 = load ptr, ptr %11, align 8, !tbaa !799
  %15 = icmp ne ptr %14, null
  br i1 %15, label %16, label %24

16:                                               ; preds = %6
  %17 = load i32, ptr %10, align 4, !tbaa !41
  %18 = or i32 %17, 32
  store i32 %18, ptr %10, align 4, !tbaa !41
  %19 = load ptr, ptr %11, align 8, !tbaa !799
  %20 = getelementptr inbounds nuw %struct.rb_callinfo_kwarg, ptr %19, i32 0, i32 0
  %21 = load i32, ptr %20, align 8, !tbaa !41
  %22 = load i32, ptr %9, align 4, !tbaa !41
  %23 = add i32 %22, %21
  store i32 %23, ptr %9, align 4, !tbaa !41
  br label %24

24:                                               ; preds = %16, %6
  %25 = load i32, ptr %10, align 4, !tbaa !41
  %26 = and i32 %25, 8291
  %27 = icmp ne i32 %26, 0
  br i1 %27, label %34, label %28

28:                                               ; preds = %24
  %29 = load i32, ptr %12, align 4, !tbaa !41
  %30 = icmp ne i32 %29, 0
  br i1 %30, label %34, label %31

31:                                               ; preds = %28
  %32 = load i32, ptr %10, align 4, !tbaa !41
  %33 = or i32 %32, 16
  store i32 %33, ptr %10, align 4, !tbaa !41
  br label %34

34:                                               ; preds = %31, %28, %24
  %35 = load ptr, ptr %7, align 8, !tbaa !11
  %36 = getelementptr inbounds nuw %struct.rb_iseq_struct, ptr %35, i32 0, i32 2
  %37 = load ptr, ptr %36, align 8, !tbaa !52
  %38 = getelementptr inbounds nuw %struct.rb_iseq_constant_body, ptr %37, i32 0, i32 18
  %39 = load i32, ptr %38, align 4, !tbaa !263
  %40 = add i32 %39, 1
  store i32 %40, ptr %38, align 4, !tbaa !263
  call void @llvm.lifetime.start.p0(i64 8, ptr %13) #31
  %41 = load i64, ptr %8, align 8, !tbaa !7
  %42 = load i32, ptr %10, align 4, !tbaa !41
  %43 = load i32, ptr %9, align 4, !tbaa !41
  %44 = load ptr, ptr %11, align 8, !tbaa !799
  %45 = call ptr @vm_ci_new_(i64 noundef %41, i32 noundef %42, i32 noundef %43, ptr noundef %44, ptr noundef @.str, i32 noundef 1459)
  store ptr %45, ptr %13, align 8, !tbaa !791
  %46 = load ptr, ptr %7, align 8, !tbaa !11
  %47 = ptrtoint ptr %46 to i64
  %48 = load ptr, ptr %13, align 8, !tbaa !791
  %49 = ptrtoint ptr %48 to i64
  %50 = call i64 @rb_obj_written(i64 noundef %47, i64 noundef 36, i64 noundef %49, ptr noundef @.str, i32 noundef 1460)
  %51 = load ptr, ptr %13, align 8, !tbaa !791
  call void @llvm.lifetime.end.p0(i64 8, ptr %13) #31
  ret ptr %51
}