; Function Attrs: nounwind sspstrong uwtable
define internal fastcc ptr @new_callinfo(ptr noundef %0, i64 noundef %1, i32 noundef %2, i32 noundef %3, ptr noundef %4, i32 noundef range(i32 0, 2) %5) unnamed_addr #1 {
  %.not = icmp eq ptr %4, null
  br i1 %.not, label %11, label %7

7:                                                ; preds = %6
  %8 = or i32 %3, 32
  %9 = load i32, ptr %4, align 8, !tbaa !39
  %10 = add i32 %9, %2
  br label %11

11:                                               ; preds = %7, %6
  %.015 = phi i32 [ %8, %7 ], [ %3, %6 ]
  %.0 = phi i32 [ %10, %7 ], [ %2, %6 ]
  %12 = and i32 %.015, 8291
  %13 = or i32 %12, %5
  %or.cond.not = icmp eq i32 %13, 0
  %14 = or i32 %.015, 16
  %spec.select = select i1 %or.cond.not, i32 %14, i32 %.015
  %15 = getelementptr inbounds nuw i8, ptr %0, i64 16
  %16 = load ptr, ptr %15, align 8, !tbaa !45
  %17 = getelementptr inbounds nuw i8, ptr %16, i64 252
  %18 = load i32, ptr %17, align 4, !tbaa !116
  %19 = add i32 %18, 1
  store i32 %19, ptr %17, align 4, !tbaa !116
  %.not.i = icmp ult i64 %1, 4294967296
  %.not13.i = icmp ult i32 %spec.select, 65536
  %or.cond14.i = and i1 %.not.i, %.not13.i
  br i1 %or.cond14.i, label %20, label %33

20:                                               ; preds = %11
  %21 = icmp ugt i32 %.0, 32767
  %22 = icmp ne ptr %4, null
  %or.cond.i = or i1 %22, %21
  br i1 %or.cond.i, label %33, label %23

23:                                               ; preds = %20
  %24 = shl nuw i64 %1, 32
  %25 = shl nuw i32 %spec.select, 16
  %26 = zext i32 %25 to i64
  %27 = or disjoint i64 %24, %26
  %28 = shl nuw nsw i32 %.0, 1
  %29 = zext nneg i32 %28 to i64
  %30 = or disjoint i64 %27, %29
  %31 = or disjoint i64 %30, 1
  %32 = inttoptr i64 %31 to ptr
  br label %vm_ci_new_.exit

33:                                               ; preds = %20, %11
  %34 = tail call ptr @rb_vm_ci_lookup(i64 noundef %1, i32 noundef %spec.select, i32 noundef %.0, ptr noundef %4) #38
  br label %vm_ci_new_.exit

vm_ci_new_.exit:                                  ; preds = %23, %33
  %.0.i = phi ptr [ %34, %33 ], [ %32, %23 ]
  %35 = ptrtoint ptr %.0.i to i64
  %36 = icmp eq ptr %.0.i, null
  %37 = and i64 %35, 7
  %38 = icmp ne i64 %37, 0
  %39 = or i1 %36, %38
  br i1 %39, label %rb_obj_written.exit, label %40

40:                                               ; preds = %vm_ci_new_.exit
  %41 = ptrtoint ptr %0 to i64
  tail call void @rb_gc_writebarrier(i64 noundef %41, i64 noundef %35) #38
  br label %rb_obj_written.exit

rb_obj_written.exit:                              ; preds = %vm_ci_new_.exit, %40
  ret ptr %.0.i
}